target datalayout = "e-m:e-p270:32:32-p271:32:32-p272:64:64-i64:64-i128:128-f80:128-n8:16:32:64-S128"
target triple = "x86_64-pc-linux-gnu"

%struct.GVJ_s = type { ptr, ptr, ptr, ptr, ptr, ptr, i32, ptr, ptr, ptr, ptr, i64, i64, ptr, i32, %struct.gvplugin_active_render_s, %struct.gvplugin_active_device_s, %struct.gvplugin_active_loadimage_t, ptr, %struct.pointf_s, i8, ptr, i32, ptr, i8, ptr, i32, i32, i32, %struct.point, %struct.point, %struct.point, %struct.point, %struct.point, i32, %struct.boxf, %struct.pointf_s, %struct.boxf, %struct.boxf, %struct.pointf_s, %struct.pointf_s, double, i32, %struct.pointf_s, %struct.boxf, %struct.pointf_s, %struct.pointf_s, i32, i32, %struct.box, %struct.box, %struct.pointf_s, %struct.pointf_s, %struct.pointf_s, i8, i8, i8, i8, i8, i8, %struct.pointf_s, %struct.pointf_s, ptr, ptr, ptr, ptr, ptr, ptr, i64, ptr }
%struct.gvplugin_active_render_s = type { ptr, i32, ptr, ptr }
%struct.gvplugin_active_device_s = type { ptr, i32, ptr, ptr }
%struct.gvplugin_active_loadimage_t = type { ptr, i32, ptr }
%struct.point = type { i32, i32 }
%struct.boxf = type { %struct.pointf_s, %struct.pointf_s }
%struct.box = type { %struct.point, %struct.point }
%struct.pointf_s = type { double, double }
%struct.obj_state_s = type { ptr, i32, %union.anon, i32, %struct.color_s, %struct.color_s, %struct.color_s, i32, double, i32, i32, double, ptr, double, double, double, ptr, ptr, ptr, ptr, ptr, ptr, ptr, ptr, ptr, ptr, ptr, ptr, ptr, ptr, ptr, ptr, ptr, i16, i32, i64, ptr, i64, ptr, ptr, i32, ptr, i32, ptr }
%union.anon = type { ptr }
%struct.color_s = type { %union.anon.0, i32 }
%union.anon.0 = type { [4 x double] }

; Function Attrs: nounwind uwtable
define void @pop_obj_state(ptr noundef %0) #0 {
  %2 = alloca ptr, align 8
  %3 = alloca ptr, align 8
  store ptr %0, ptr %2, align 8, !tbaa !12
  call void @llvm.lifetime.start.p0(i64 8, ptr %3) #15
  %4 = load ptr, ptr %2, align 8, !tbaa !12
  %5 = getelementptr inbounds nuw %struct.GVJ_s, ptr %4, i32 0, i32 4
  %6 = load ptr, ptr %5, align 8, !tbaa !16
  store ptr %6, ptr %3, align 8, !tbaa !14
  %7 = load ptr, ptr %3, align 8, !tbaa !14
  %8 = getelementptr inbounds nuw %struct.obj_state_s, ptr %7, i32 0, i32 21
  %9 = load ptr, ptr %8, align 8, !tbaa !50
  call void @free(ptr noundef %9) #15
  %10 = load ptr, ptr %3, align 8, !tbaa !14
  %11 = getelementptr inbounds nuw %struct.obj_state_s, ptr %10, i32 0, i32 20
  %12 = load ptr, ptr %11, align 8, !tbaa !51
  call void @free(ptr noundef %12) #15
  %13 = load ptr, ptr %3, align 8, !tbaa !14
  %14 = getelementptr inbounds nuw %struct.obj_state_s, ptr %13, i32 0, i32 22
  %15 = load ptr, ptr %14, align 8, !tbaa !52
  call void @free(ptr noundef %15) #15
  %16 = load ptr, ptr %3, align 8, !tbaa !14
  %17 = getelementptr inbounds nuw %struct.obj_state_s, ptr %16, i32 0, i32 23
  %18 = load ptr, ptr %17, align 8, !tbaa !53
  call void @free(ptr noundef %18) #15
  %19 = load ptr, ptr %3, align 8, !tbaa !14
  %20 = getelementptr inbounds nuw %struct.obj_state_s, ptr %19, i32 0, i32 24
  %21 = load ptr, ptr %20, align 8, !tbaa !54
  call void @free(ptr noundef %21) #15
  %22 = load ptr, ptr %3, align 8, !tbaa !14
  %23 = getelementptr inbounds nuw %struct.obj_state_s, ptr %22, i32 0, i32 25
  %24 = load ptr, ptr %23, align 8, !tbaa !55
  call void @free(ptr noundef %24) #15
  %25 = load ptr, ptr %3, align 8, !tbaa !14
  %26 = getelementptr inbounds nuw %struct.obj_state_s, ptr %25, i32 0, i32 26
  %27 = load ptr, ptr %26, align 8, !tbaa !56
  call void @free(ptr noundef %27) #15
  %28 = load ptr, ptr %3, align 8, !tbaa !14
  %29 = getelementptr inbounds nuw %struct.obj_state_s, ptr %28, i32 0, i32 27
  %30 = load ptr, ptr %29, align 8, !tbaa !57
  call void @free(ptr noundef %30) #15
  %31 = load ptr, ptr %3, align 8, !tbaa !14
  %32 = getelementptr inbounds nuw %struct.obj_state_s, ptr %31, i32 0, i32 28
  %33 = load ptr, ptr %32, align 8, !tbaa !58
  call void @free(ptr noundef %33) #15
  %34 = load ptr, ptr %3, align 8, !tbaa !14
  %35 = getelementptr inbounds nuw %struct.obj_state_s, ptr %34, i32 0, i32 29
  %36 = load ptr, ptr %35, align 8, !tbaa !59
  call void @free(ptr noundef %36) #15
  %37 = load ptr, ptr %3, align 8, !tbaa !14
  %38 = getelementptr inbounds nuw %struct.obj_state_s, ptr %37, i32 0, i32 30
  %39 = load ptr, ptr %38, align 8, !tbaa !60
  call void @free(ptr noundef %39) #15
  %40 = load ptr, ptr %3, align 8, !tbaa !14
  %41 = getelementptr inbounds nuw %struct.obj_state_s, ptr %40, i32 0, i32 31
  %42 = load ptr, ptr %41, align 8, !tbaa !61
  call void @free(ptr noundef %42) #15
  %43 = load ptr, ptr %3, align 8, !tbaa !14
  %44 = getelementptr inbounds nuw %struct.obj_state_s, ptr %43, i32 0, i32 32
  %45 = load ptr, ptr %44, align 8, !tbaa !62
  call void @free(ptr noundef %45) #15
  %46 = load ptr, ptr %3, align 8, !tbaa !14
  %47 = getelementptr inbounds nuw %struct.obj_state_s, ptr %46, i32 0, i32 36
  %48 = load ptr, ptr %47, align 8, !tbaa !63
  call void @free(ptr noundef %48) #15
  %49 = load ptr, ptr %3, align 8, !tbaa !14
  %50 = getelementptr inbounds nuw %struct.obj_state_s, ptr %49, i32 0, i32 39
  %51 = load ptr, ptr %50, align 8, !tbaa !64
  call void @free(ptr noundef %51) #15
  %52 = load ptr, ptr %3, align 8, !tbaa !14
  %53 = getelementptr inbounds nuw %struct.obj_state_s, ptr %52, i32 0, i32 38
  %54 = load ptr, ptr %53, align 8, !tbaa !65
  call void @free(ptr noundef %54) #15
  %55 = load ptr, ptr %3, align 8, !tbaa !14
  %56 = getelementptr inbounds nuw %struct.obj_state_s, ptr %55, i32 0, i32 0
  %57 = load ptr, ptr %56, align 8, !tbaa !37
  %58 = load ptr, ptr %2, align 8, !tbaa !12
  %59 = getelementptr inbounds nuw %struct.GVJ_s, ptr %58, i32 0, i32 4
  store ptr %57, ptr %59, align 8, !tbaa !16
  %60 = load ptr, ptr %3, align 8, !tbaa !14
  call void @free(ptr noundef %60) #15
  call void @llvm.lifetime.end.p0(i64 8, ptr %3) #15
  ret void
}