; Function Attrs: mustprogress nounwind willreturn uwtable
define void @pop_obj_state(ptr noundef captures(none) %0) local_unnamed_addr #5 {
  %2 = getelementptr inbounds nuw i8, ptr %0, i64 32
  %3 = load ptr, ptr %2, align 8, !tbaa !9
  %4 = getelementptr inbounds nuw i8, ptr %3, i64 256
  %5 = load ptr, ptr %4, align 8, !tbaa !44
  tail call void @free(ptr noundef %5) #27
  %6 = getelementptr inbounds nuw i8, ptr %3, i64 248
  %7 = load ptr, ptr %6, align 8, !tbaa !45
  tail call void @free(ptr noundef %7) #27
  %8 = getelementptr inbounds nuw i8, ptr %3, i64 264
  %9 = load ptr, ptr %8, align 8, !tbaa !46
  tail call void @free(ptr noundef %9) #27
  %10 = getelementptr inbounds nuw i8, ptr %3, i64 272
  %11 = load ptr, ptr %10, align 8, !tbaa !47
  tail call void @free(ptr noundef %11) #27
  %12 = getelementptr inbounds nuw i8, ptr %3, i64 280
  %13 = load ptr, ptr %12, align 8, !tbaa !48
  tail call void @free(ptr noundef %13) #27
  %14 = getelementptr inbounds nuw i8, ptr %3, i64 288
  %15 = load ptr, ptr %14, align 8, !tbaa !49
  tail call void @free(ptr noundef %15) #27
  %16 = getelementptr inbounds nuw i8, ptr %3, i64 296
  %17 = load ptr, ptr %16, align 8, !tbaa !50
  tail call void @free(ptr noundef %17) #27
  %18 = getelementptr inbounds nuw i8, ptr %3, i64 304
  %19 = load ptr, ptr %18, align 8, !tbaa !51
  tail call void @free(ptr noundef %19) #27
  %20 = getelementptr inbounds nuw i8, ptr %3, i64 312
  %21 = load ptr, ptr %20, align 8, !tbaa !52
  tail call void @free(ptr noundef %21) #27
  %22 = getelementptr inbounds nuw i8, ptr %3, i64 320
  %23 = load ptr, ptr %22, align 8, !tbaa !53
  tail call void @free(ptr noundef %23) #27
  %24 = getelementptr inbounds nuw i8, ptr %3, i64 328
  %25 = load ptr, ptr %24, align 8, !tbaa !54
  tail call void @free(ptr noundef %25) #27
  %26 = getelementptr inbounds nuw i8, ptr %3, i64 336
  %27 = load ptr, ptr %26, align 8, !tbaa !55
  tail call void @free(ptr noundef %27) #27
  %28 = getelementptr inbounds nuw i8, ptr %3, i64 344
  %29 = load ptr, ptr %28, align 8, !tbaa !56
  tail call void @free(ptr noundef %29) #27
  %30 = getelementptr inbounds nuw i8, ptr %3, i64 368
  %31 = load ptr, ptr %30, align 8, !tbaa !57
  tail call void @free(ptr noundef %31) #27
  %32 = getelementptr inbounds nuw i8, ptr %3, i64 392
  %33 = load ptr, ptr %32, align 8, !tbaa !58
  tail call void @free(ptr noundef %33) #27
  %34 = getelementptr inbounds nuw i8, ptr %3, i64 384
  %35 = load ptr, ptr %34, align 8, !tbaa !59
  tail call void @free(ptr noundef %35) #27
  %36 = load ptr, ptr %3, align 8, !tbaa !32
  store ptr %36, ptr %2, align 8, !tbaa !9
  tail call void @free(ptr noundef %3) #27
  ret void
}